; Function Attrs: mustprogress nounwind uwtable
define void @_ZN3gmx12ForceBuffersD2Ev(ptr noundef nonnull align 8 dereferenceable(137) %0) unnamed_addr #6 align 2 personality ptr @__gxx_personality_v0 {
  %2 = getelementptr inbounds i8, ptr %0, i64 48
  %3 = load ptr, ptr %2, align 8
  %.not.i.i.i.i = icmp eq ptr %3, null
  br i1 %.not.i.i.i.i, label %_ZN3gmx12PaddedVectorINS_11BasicVectorIfEENS_9AllocatorIS2_NS_20HostAllocationPolicyEEEED2Ev.exit, label %4

4:                                                ; preds = %1
  %5 = getelementptr inbounds i8, ptr %0, i64 40
  tail call void @_ZNK3gmx20HostAllocationPolicy4freeEPv(ptr noundef nonnull align 4 dereferenceable(4) %5, ptr noundef nonnull %3) #11
  br label %_ZN3gmx12PaddedVectorINS_11BasicVectorIfEENS_9AllocatorIS2_NS_20HostAllocationPolicyEEEED2Ev.exit

_ZN3gmx12PaddedVectorINS_11BasicVectorIfEENS_9AllocatorIS2_NS_20HostAllocationPolicyEEEED2Ev.exit: ; preds = %1, %4
  %6 = getelementptr inbounds i8, ptr %0, i64 8
  %7 = load ptr, ptr %6, align 8
  %.not.i.i.i.i1 = icmp eq ptr %7, null
  br i1 %.not.i.i.i.i1, label %_ZN3gmx12PaddedVectorINS_11BasicVectorIfEENS_9AllocatorIS2_NS_20HostAllocationPolicyEEEED2Ev.exit2, label %8

8:                                                ; preds = %_ZN3gmx12PaddedVectorINS_11BasicVectorIfEENS_9AllocatorIS2_NS_20HostAllocationPolicyEEEED2Ev.exit
  tail call void @_ZNK3gmx20HostAllocationPolicy4freeEPv(ptr noundef nonnull align 4 dereferenceable(4) %0, ptr noundef nonnull %7) #11
  br label %_ZN3gmx12PaddedVectorINS_11BasicVectorIfEENS_9AllocatorIS2_NS_20HostAllocationPolicyEEEED2Ev.exit2

_ZN3gmx12PaddedVectorINS_11BasicVectorIfEENS_9AllocatorIS2_NS_20HostAllocationPolicyEEEED2Ev.exit2: ; preds = %_ZN3gmx12PaddedVectorINS_11BasicVectorIfEENS_9AllocatorIS2_NS_20HostAllocationPolicyEEEED2Ev.exit, %8
  ret void
}